target datalayout = "e-m:e-p270:32:32-p271:32:32-p272:64:64-i64:64-i128:128-f80:128-n8:16:32:64-S128"
target triple = "x86_64-pc-linux-gnu"

@stderr = external global ptr, align 8
@.str.25 = private unnamed_addr constant [58 x i8] c"integer overflow when trying to allocate %zu * %zu bytes\0A\00", align 1
@.str.26 = private unnamed_addr constant [49 x i8] c"out of memory when trying to allocate %zu bytes\0A\00", align 1

; Function Attrs: inlinehint nounwind uwtable
define internal ptr @gv_realloc(ptr noundef %0, i64 noundef %1, i64 noundef %2) #5 {
  %4 = alloca ptr, align 8
  %5 = alloca ptr, align 8
  %6 = alloca i64, align 8
  %7 = alloca i64, align 8
  %8 = alloca ptr, align 8
  store ptr %0, ptr %5, align 8, !tbaa !36
  store i64 %1, ptr %6, align 8, !tbaa !35
  store i64 %2, ptr %7, align 8, !tbaa !35
  %9 = load i64, ptr %7, align 8, !tbaa !35
  %10 = icmp eq i64 %9, 0
  br i1 %10, label %11, label %13

11:                                               ; preds = %3
  %12 = load ptr, ptr %5, align 8, !tbaa !36
  call void @free(ptr noundef %12) #14
  store ptr null, ptr %4, align 8
  br label %36

13:                                               ; preds = %3
  call void @llvm.lifetime.start.p0(i64 8, ptr %8) #14
  %14 = load ptr, ptr %5, align 8, !tbaa !36
  %15 = load i64, ptr %7, align 8, !tbaa !35
  %16 = call ptr @realloc(ptr noundef %14, i64 noundef %15) #19
  store ptr %16, ptr %8, align 8, !tbaa !36
  %17 = load ptr, ptr %8, align 8, !tbaa !36
  %18 = icmp eq ptr %17, null
  br i1 %18, label %19, label %23

19:                                               ; preds = %13
  %20 = load ptr, ptr @stderr, align 8, !tbaa !23
  %21 = load i64, ptr %7, align 8, !tbaa !35
  %22 = call i32 (ptr, ptr, ...) @fprintf(ptr noundef %20, ptr noundef @.str.26, i64 noundef %21) #14
  call void @graphviz_exit(i32 noundef 1) #15
  unreachable

23:                                               ; preds = %13
  %24 = load i64, ptr %7, align 8, !tbaa !35
  %25 = load i64, ptr %6, align 8, !tbaa !35
  %26 = icmp ugt i64 %24, %25
  br i1 %26, label %27, label %34

27:                                               ; preds = %23
  %28 = load ptr, ptr %8, align 8, !tbaa !36
  %29 = load i64, ptr %6, align 8, !tbaa !35
  %30 = getelementptr inbounds nuw i8, ptr %28, i64 %29
  %31 = load i64, ptr %7, align 8, !tbaa !35
  %32 = load i64, ptr %6, align 8, !tbaa !35
  %33 = sub i64 %31, %32
  call void @llvm.memset.p0.i64(ptr align 1 %30, i8 0, i64 %33, i1 false)
  br label %34

34:                                               ; preds = %27, %23
  %35 = load ptr, ptr %8, align 8, !tbaa !36
  store ptr %35, ptr %4, align 8
  call void @llvm.lifetime.end.p0(i64 8, ptr %8) #14
  br label %36

36:                                               ; preds = %34, %11
  %37 = load ptr, ptr %4, align 8
  ret ptr %37
}

; Function Attrs: inlinehint nounwind uwtable
define internal ptr @gv_recalloc(ptr noundef %0, i64 noundef %1, i64 noundef %2, i64 noundef %3) #5 {
  %5 = alloca ptr, align 8
  %6 = alloca i64, align 8
  %7 = alloca i64, align 8
  %8 = alloca i64, align 8
  store ptr %0, ptr %5, align 8, !tbaa !36
  store i64 %1, ptr %6, align 8, !tbaa !35
  store i64 %2, ptr %7, align 8, !tbaa !35
  store i64 %3, ptr %8, align 8, !tbaa !35
  %9 = load i64, ptr %7, align 8, !tbaa !35
  %10 = load i64, ptr %8, align 8, !tbaa !35
  %11 = udiv i64 -1, %10
  %12 = icmp ugt i64 %9, %11
  br i1 %12, label %13, label %18

13:                                               ; preds = %4
  %14 = load ptr, ptr @stderr, align 8, !tbaa !23
  %15 = load i64, ptr %7, align 8, !tbaa !35
  %16 = load i64, ptr %8, align 8, !tbaa !35
  %17 = call i32 (ptr, ptr, ...) @fprintf(ptr noundef %14, ptr noundef @.str.25, i64 noundef %15, i64 noundef %16) #14
  call void @graphviz_exit(i32 noundef 1) #15
  unreachable

18:                                               ; preds = %4
  %19 = load ptr, ptr %5, align 8, !tbaa !36
  %20 = load i64, ptr %6, align 8, !tbaa !35
  %21 = load i64, ptr %8, align 8, !tbaa !35
  %22 = mul i64 %20, %21
  %23 = load i64, ptr %7, align 8, !tbaa !35
  %24 = load i64, ptr %8, align 8, !tbaa !35
  %25 = mul i64 %23, %24
  %26 = call ptr @gv_realloc(ptr noundef %19, i64 noundef %22, i64 noundef %25)
  ret ptr %26
}

; Function Attrs: nounwind uwtable
define internal void @add_point(ptr noundef %0, i32 noundef %1, ptr noundef %2, ptr noundef %3, ptr noundef %4, ptr noundef %5) #0 {
  %7 = alloca ptr, align 8
  %8 = alloca i32, align 4
  %9 = alloca ptr, align 8
  %10 = alloca ptr, align 8
  %11 = alloca ptr, align 8
  %12 = alloca ptr, align 8
  %13 = alloca i32, align 4
  store ptr %0, ptr %7, align 8, !tbaa !37
  store i32 %1, ptr %8, align 4, !tbaa !21
  store ptr %2, ptr %9, align 8, !tbaa !57
  store ptr %3, ptr %10, align 8, !tbaa !37
  store ptr %4, ptr %11, align 8, !tbaa !13
  store ptr %5, ptr %12, align 8, !tbaa !61
  %14 = load ptr, ptr %7, align 8, !tbaa !37
  %15 = load i32, ptr %14, align 4, !tbaa !21
  %16 = load ptr, ptr %10, align 8, !tbaa !37
  %17 = load i32, ptr %16, align 4, !tbaa !21
  %18 = icmp sge i32 %15, %17
  br i1 %18, label %19, label %46

19:                                               ; preds = %6
  call void @llvm.lifetime.start.p0(i64 4, ptr %13) #14
  %20 = load ptr, ptr %10, align 8, !tbaa !37
  %21 = load i32, ptr %20, align 4, !tbaa !21
  store i32 %21, ptr %13, align 4, !tbaa !21
  %22 = load ptr, ptr %7, align 8, !tbaa !37
  %23 = load i32, ptr %22, align 4, !tbaa !21
  %24 = add nsw i32 20, %23
  %25 = load ptr, ptr %10, align 8, !tbaa !37
  store i32 %24, ptr %25, align 4, !tbaa !21
  %26 = load ptr, ptr %9, align 8, !tbaa !57
  %27 = load ptr, ptr %26, align 8, !tbaa !13
  %28 = load i32, ptr %13, align 4, !tbaa !21
  %29 = mul nsw i32 2, %28
  %30 = sext i32 %29 to i64
  %31 = load ptr, ptr %10, align 8, !tbaa !37
  %32 = load i32, ptr %31, align 4, !tbaa !21
  %33 = mul nsw i32 2, %32
  %34 = sext i32 %33 to i64
  %35 = call ptr @gv_recalloc(ptr noundef %27, i64 noundef %30, i64 noundef %34, i64 noundef 8)
  %36 = load ptr, ptr %9, align 8, !tbaa !57
  store ptr %35, ptr %36, align 8, !tbaa !13
  %37 = load ptr, ptr %12, align 8, !tbaa !61
  %38 = load ptr, ptr %37, align 8, !tbaa !37
  %39 = load i32, ptr %13, align 4, !tbaa !21
  %40 = sext i32 %39 to i64
  %41 = load ptr, ptr %10, align 8, !tbaa !37
  %42 = load i32, ptr %41, align 4, !tbaa !21
  %43 = sext i32 %42 to i64
  %44 = call ptr @gv_recalloc(ptr noundef %38, i64 noundef %40, i64 noundef %43, i64 noundef 4)
  %45 = load ptr, ptr %12, align 8, !tbaa !61
  store ptr %44, ptr %45, align 8, !tbaa !37
  call void @llvm.lifetime.end.p0(i64 4, ptr %13) #14
  br label %46

46:                                               ; preds = %19, %6
  %47 = load ptr, ptr %11, align 8, !tbaa !13
  %48 = getelementptr inbounds double, ptr %47, i64 0
  %49 = load double, ptr %48, align 8, !tbaa !25
  %50 = load ptr, ptr %9, align 8, !tbaa !57
  %51 = load ptr, ptr %50, align 8, !tbaa !13
  %52 = load ptr, ptr %7, align 8, !tbaa !37
  %53 = load i32, ptr %52, align 4, !tbaa !21
  %54 = mul nsw i32 %53, 2
  %55 = sext i32 %54 to i64
  %56 = getelementptr inbounds double, ptr %51, i64 %55
  store double %49, ptr %56, align 8, !tbaa !25
  %57 = load ptr, ptr %11, align 8, !tbaa !13
  %58 = getelementptr inbounds double, ptr %57, i64 1
  %59 = load double, ptr %58, align 8, !tbaa !25
  %60 = load ptr, ptr %9, align 8, !tbaa !57
  %61 = load ptr, ptr %60, align 8, !tbaa !13
  %62 = load ptr, ptr %7, align 8, !tbaa !37
  %63 = load i32, ptr %62, align 4, !tbaa !21
  %64 = mul nsw i32 %63, 2
  %65 = add nsw i32 %64, 1
  %66 = sext i32 %65 to i64
  %67 = getelementptr inbounds double, ptr %61, i64 %66
  store double %59, ptr %67, align 8, !tbaa !25
  %68 = load i32, ptr %8, align 4, !tbaa !21
  %69 = load ptr, ptr %12, align 8, !tbaa !61
  %70 = load ptr, ptr %69, align 8, !tbaa !37
  %71 = load ptr, ptr %7, align 8, !tbaa !37
  %72 = load i32, ptr %71, align 4, !tbaa !21
  %73 = sext i32 %72 to i64
  %74 = getelementptr inbounds i32, ptr %70, i64 %73
  store i32 %68, ptr %74, align 4, !tbaa !21
  %75 = load ptr, ptr %7, align 8, !tbaa !37
  %76 = load i32, ptr %75, align 4, !tbaa !21
  %77 = add nsw i32 %76, 1
  store i32 %77, ptr %75, align 4, !tbaa !21
  ret void
}