; Function Attrs: nounwind uwtable
define internal fastcc void @add_point(ptr noundef nonnull captures(none) %0, i32 noundef %1, ptr noundef nonnull captures(none) %2, ptr noundef nonnull captures(none) %3, double %.0.val, double %.8.val, ptr noundef nonnull captures(none) %4) unnamed_addr #0 {
  %6 = load i32, ptr %0, align 4, !tbaa !19
  %7 = load i32, ptr %3, align 4, !tbaa !19
  %.not = icmp slt i32 %6, %7
  br i1 %.not, label %._crit_edge, label %8

._crit_edge:                                      ; preds = %5
  %.pre1 = load ptr, ptr %4, align 8, !tbaa !26
  br label %57

8:                                                ; preds = %5
  %9 = add nsw i32 %6, 20
  store i32 %9, ptr %3, align 4, !tbaa !19
  %10 = load ptr, ptr %2, align 8, !tbaa !4
  %11 = shl nsw i32 %9, 1
  %12 = sext i32 %11 to i64
  %mul.ov.i = icmp slt i32 %6, -20
  br i1 %mul.ov.i, label %13, label %16

13:                                               ; preds = %8
  %14 = load ptr, ptr @stderr, align 8, !tbaa !15
  %15 = tail call i32 (ptr, ptr, ...) @fprintf(ptr noundef %14, ptr noundef nonnull @.str.25, i64 noundef %12, i64 noundef 8) #20
  tail call fastcc void @graphviz_exit() #21
  unreachable

16:                                               ; preds = %8
  %17 = shl nsw i32 %7, 1
  %18 = sext i32 %17 to i64
  %19 = shl nsw i64 %18, 3
  %20 = shl nsw i64 %12, 3
  %21 = icmp eq i32 %9, 0
  br i1 %21, label %22, label %23

22:                                               ; preds = %16
  tail call void @free(ptr noundef %10) #19
  br label %gv_recalloc.exit

23:                                               ; preds = %16
  %24 = tail call ptr @realloc(ptr noundef %10, i64 noundef %20) #23
  %25 = icmp eq ptr %24, null
  br i1 %25, label %26, label %29

26:                                               ; preds = %23
  %27 = load ptr, ptr @stderr, align 8, !tbaa !15
  %28 = tail call i32 (ptr, ptr, ...) @fprintf(ptr noundef %27, ptr noundef nonnull @.str.26, i64 noundef %20) #20
  tail call fastcc void @graphviz_exit() #21
  unreachable

29:                                               ; preds = %23
  %30 = icmp ugt i64 %20, %19
  br i1 %30, label %31, label %gv_recalloc.exit

31:                                               ; preds = %29
  %32 = getelementptr inbounds nuw i8, ptr %24, i64 %19
  %33 = sub nuw nsw i64 %20, %19
  tail call void @llvm.memset.p0.i64(ptr nonnull align 1 %32, i8 0, i64 %33, i1 false)
  br label %gv_recalloc.exit

gv_recalloc.exit:                                 ; preds = %22, %29, %31
  %.0.i.i = phi ptr [ null, %22 ], [ %24, %31 ], [ %24, %29 ]
  store ptr %.0.i.i, ptr %2, align 8, !tbaa !4
  %34 = load ptr, ptr %4, align 8, !tbaa !26
  %35 = load i32, ptr %3, align 4, !tbaa !19
  %36 = sext i32 %35 to i64
  %mul.ov.i24 = icmp slt i32 %35, 0
  br i1 %mul.ov.i24, label %37, label %40

37:                                               ; preds = %gv_recalloc.exit
  %38 = load ptr, ptr @stderr, align 8, !tbaa !15
  %39 = tail call i32 (ptr, ptr, ...) @fprintf(ptr noundef %38, ptr noundef nonnull @.str.25, i64 noundef %36, i64 noundef 4) #20
  tail call fastcc void @graphviz_exit() #21
  unreachable

40:                                               ; preds = %gv_recalloc.exit
  %41 = sext i32 %7 to i64
  %42 = shl nsw i64 %41, 2
  %43 = shl nuw nsw i64 %36, 2
  %44 = icmp eq i32 %35, 0
  br i1 %44, label %45, label %46

45:                                               ; preds = %40
  tail call void @free(ptr noundef %34) #19
  br label %gv_recalloc.exit26

46:                                               ; preds = %40
  %47 = tail call ptr @realloc(ptr noundef %34, i64 noundef %43) #23
  %48 = icmp eq ptr %47, null
  br i1 %48, label %49, label %52

49:                                               ; preds = %46
  %50 = load ptr, ptr @stderr, align 8, !tbaa !15
  %51 = tail call i32 (ptr, ptr, ...) @fprintf(ptr noundef %50, ptr noundef nonnull @.str.26, i64 noundef %43) #20
  tail call fastcc void @graphviz_exit() #21
  unreachable

52:                                               ; preds = %46
  %53 = icmp ugt i64 %43, %42
  br i1 %53, label %54, label %gv_recalloc.exit26

54:                                               ; preds = %52
  %55 = getelementptr inbounds nuw i8, ptr %47, i64 %42
  %56 = sub nuw nsw i64 %43, %42
  tail call void @llvm.memset.p0.i64(ptr nonnull align 1 %55, i8 0, i64 %56, i1 false)
  br label %gv_recalloc.exit26

gv_recalloc.exit26:                               ; preds = %45, %52, %54
  %.0.i.i25 = phi ptr [ null, %45 ], [ %47, %54 ], [ %47, %52 ]
  store ptr %.0.i.i25, ptr %4, align 8, !tbaa !26
  %.pre = load i32, ptr %0, align 4, !tbaa !19
  br label %57

57:                                               ; preds = %._crit_edge, %gv_recalloc.exit26
  %58 = phi ptr [ %.0.i.i25, %gv_recalloc.exit26 ], [ %.pre1, %._crit_edge ]
  %59 = phi i32 [ %.pre, %gv_recalloc.exit26 ], [ %6, %._crit_edge ]
  %60 = load ptr, ptr %2, align 8, !tbaa !4
  %61 = shl nsw i32 %59, 1
  %62 = sext i32 %61 to i64
  %63 = getelementptr inbounds double, ptr %60, i64 %62
  store double %.0.val, ptr %63, align 8, !tbaa !20
  %64 = or disjoint i32 %61, 1
  %65 = sext i32 %64 to i64
  %66 = getelementptr inbounds double, ptr %60, i64 %65
  store double %.8.val, ptr %66, align 8, !tbaa !20
  %67 = sext i32 %59 to i64
  %68 = getelementptr inbounds i32, ptr %58, i64 %67
  store i32 %1, ptr %68, align 4, !tbaa !19
  %69 = load i32, ptr %0, align 4, !tbaa !19
  %70 = add nsw i32 %69, 1
  store i32 %70, ptr %0, align 4, !tbaa !19
  ret void
}